target datalayout = "e-m:e-p270:32:32-p271:32:32-p272:64:64-i64:64-i128:128-f80:128-n8:16:32:64-S128"
target triple = "x86_64-unknown-linux-gnu"

; Function Attrs: nounwind sspstrong uwtable
define internal void @vdpa_net_migration_state_notifier(ptr noundef %notifier, ptr noundef %data) #0 {
entry:
  %notifier.addr = alloca ptr, align 8
  %data.addr = alloca ptr, align 8
  %migration = alloca ptr, align 8
  %s = alloca ptr, align 8
  %__mptr = alloca ptr, align 8
  %tmp = alloca ptr, align 8
  store ptr %notifier, ptr %notifier.addr, align 8
  store ptr %data, ptr %data.addr, align 8
  %0 = load ptr, ptr %data.addr, align 8
  store ptr %0, ptr %migration, align 8
  %1 = load ptr, ptr %notifier.addr, align 8
  store ptr %1, ptr %__mptr, align 8
  %2 = load ptr, ptr %__mptr, align 8
  %add.ptr = getelementptr i8, ptr %2, i64 -295664
  store ptr %add.ptr, ptr %tmp, align 8
  %3 = load ptr, ptr %tmp, align 8
  store ptr %3, ptr %s, align 8
  %4 = load ptr, ptr %migration, align 8
  %call = call zeroext i1 @migration_in_setup(ptr noundef %4)
  br i1 %call, label %if.then, label %if.else

if.then:                                          ; preds = %entry
  %5 = load ptr, ptr %s, align 8
  call void @vhost_vdpa_net_log_global_enable(ptr noundef %5, i1 noundef zeroext true)
  br label %if.end3

if.else:                                          ; preds = %entry
  %6 = load ptr, ptr %migration, align 8
  %call1 = call zeroext i1 @migration_has_failed(ptr noundef %6)
  br i1 %call1, label %if.then2, label %if.end

if.then2:                                         ; preds = %if.else
  %7 = load ptr, ptr %s, align 8
  call void @vhost_vdpa_net_log_global_enable(ptr noundef %7, i1 noundef zeroext false)
  br label %if.end

if.end:                                           ; preds = %if.then2, %if.else
  br label %if.end3

if.end3:                                          ; preds = %if.end, %if.then
  ret void
}