; Function Attrs: nounwind sspstrong uwtable
define internal void @vdpa_net_migration_state_notifier(ptr noundef readonly captures(none) %notifier, ptr noundef %data) #0 {
entry:
  %add.ptr = getelementptr i8, ptr %notifier, i64 -295664
  %call = tail call zeroext i1 @migration_in_setup(ptr noundef %data) #13
  br i1 %call, label %if.end3.sink.split, label %if.else

if.else:                                          ; preds = %entry
  %call1 = tail call zeroext i1 @migration_has_failed(ptr noundef %data) #13
  br i1 %call1, label %if.end3.sink.split, label %if.end3

if.end3.sink.split:                               ; preds = %if.else, %entry
  tail call fastcc void @vhost_vdpa_net_log_global_enable(ptr noundef %add.ptr, i1 noundef zeroext %call)
  br label %if.end3

if.end3:                                          ; preds = %if.end3.sink.split, %if.else
  ret void
}